ccollections
defaultdict
p0
(c__builtin__
list
p1
tp2
Rp3
Vno_of_stories
p4
(lp5
F78.0
aF74.0
aF59.0
aF39.0
aF23.0
aF8.0
aF4.0
aF0.0
asVembed
p6
(lp7
(lp8
I27
aI30
aI28
aI27
aI27
aI4
aI0
aI0
aa(lp9
I27
aI30
aI25
aI21
aI20
aI9
aI2
aI0
aa(lp10
I30
aI30
aI27
aI29
aI25
aI3
aI0
aI0
aasVembed_no_attn_before
p11
(lp12
(lp13
I27
aI29
aI27
aI12
aI17
aI10
aI2
aI0
aa(lp14
I30
aI29
aI26
aI25
aI17
aI10
aI0
aI0
aa(lp15
I30
aI28
aI29
aI22
aI7
aI5
aI0
aI0
aasVembed_no_attn_after
p16
(lp17
(lp18
I22
aI22
aI25
aI24
aI3
aI2
aI0
aI0
aa(lp19
I28
aI24
aI23
aI18
aI18
aI3
aI0
aI0
aa(lp20
I27
aI25
aI20
aI19
aI9
aI1
aI0
aI0
aasVembed_no_attn
p21
(lp22
(lp23
I27
aI24
aI18
aI21
aI9
aI0
aI1
aI0
aa(lp24
I26
aI27
aI29
aI19
aI5
aI3
aI0
aI0
aa(lp25
I27
aI28
aI27
aI16
aI7
aI0
aI0
aI0
aas.