ccollections
defaultdict
p0
(c__builtin__
list
p1
tp2
Rp3
Vno_of_stories
p4
(lp5
F78.0
aF74.0
aF59.0
aF39.0
aF23.0
aF8.0
aF4.0
aF0.0
asVembed
p6
(lp7
(lp8
I26
aI25
aI17
aI18
aI3
aI0
aI1
aI0
aa(lp9
I27
aI30
aI24
aI10
aI2
aI4
aI1
aI0
aa(lp10
I29
aI27
aI14
aI21
aI16
aI0
aI0
aI0
aasVembed_no_attn_before
p11
(lp12
(lp13
I30
aI30
aI29
aI20
aI9
aI1
aI0
aI0
aa(lp14
I24
aI27
aI28
aI27
aI15
aI6
aI3
aI0
aa(lp15
I29
aI29
aI27
aI27
aI21
aI6
aI0
aI0
aasVembed_no_attn_after
p16
(lp17
(lp18
I28
aI28
aI9
aI1
aI9
aI4
aI0
aI0
aa(lp19
I17
aI27
aI28
aI27
aI2
aI0
aI0
aI0
aa(lp20
I29
aI21
aI29
aI25
aI3
aI1
aI1
aI0
aasVembed_no_attn
p21
(lp22
(lp23
I27
aI27
aI19
aI15
aI11
aI8
aI0
aI0
aa(lp24
I25
aI21
aI22
aI20
aI6
aI5
aI1
aI0
aa(lp25
I24
aI22
aI26
aI20
aI16
aI3
aI3
aI0
aas.